target datalayout = "e-m:e-p270:32:32-p271:32:32-p272:64:64-i64:64-i128:128-f80:128-n8:16:32:64-S128"
target triple = "x86_64-pc-linux-gnu"

%struct.UConverter = type { ptr, ptr, ptr, ptr, ptr, ptr, ptr, i32, i8, i8, i8, i8, i8, [7 x i8], i32, i32, i32, i32, i8, i8, i8, i8, i8, i8, i8, i8, [8 x i8], [32 x i8], [2 x i16], [2 x i16], [32 x i16], i32, [19 x i16], [31 x i8], i8, i8, i8, i32 }

; Function Attrs: mustprogress nounwind uwtable
define internal void @_ZL13_UTF16LEResetP10UConverter21UConverterResetChoice(ptr noundef %0, i32 noundef %1) #1 {
  %3 = alloca ptr, align 8
  %4 = alloca i32, align 4
  store ptr %0, ptr %3, align 8, !tbaa !3
  store i32 %1, ptr %4, align 4, !tbaa !17
  %5 = load i32, ptr %4, align 4, !tbaa !17
  %6 = icmp sle i32 %5, 1
  br i1 %6, label %7, label %20

7:                                                ; preds = %2
  %8 = load ptr, ptr %3, align 8, !tbaa !3
  %9 = getelementptr inbounds nuw %struct.UConverter, ptr %8, i32 0, i32 7
  %10 = load i32, ptr %9, align 8, !tbaa !9
  %11 = and i32 %10, 15
  %12 = icmp eq i32 %11, 0
  br i1 %12, label %13, label %16

13:                                               ; preds = %7
  %14 = load ptr, ptr %3, align 8, !tbaa !3
  %15 = getelementptr inbounds nuw %struct.UConverter, ptr %14, i32 0, i32 15
  store i32 8, ptr %15, align 4, !tbaa !19
  br label %19

16:                                               ; preds = %7
  %17 = load ptr, ptr %3, align 8, !tbaa !3
  %18 = getelementptr inbounds nuw %struct.UConverter, ptr %17, i32 0, i32 15
  store i32 0, ptr %18, align 4, !tbaa !19
  br label %19

19:                                               ; preds = %16, %13
  br label %20

20:                                               ; preds = %19, %2
  %21 = load i32, ptr %4, align 4, !tbaa !17
  %22 = icmp ne i32 %21, 1
  br i1 %22, label %23, label %32

23:                                               ; preds = %20
  %24 = load ptr, ptr %3, align 8, !tbaa !3
  %25 = getelementptr inbounds nuw %struct.UConverter, ptr %24, i32 0, i32 7
  %26 = load i32, ptr %25, align 8, !tbaa !9
  %27 = and i32 %26, 15
  %28 = icmp eq i32 %27, 1
  br i1 %28, label %29, label %32

29:                                               ; preds = %23
  %30 = load ptr, ptr %3, align 8, !tbaa !3
  %31 = getelementptr inbounds nuw %struct.UConverter, ptr %30, i32 0, i32 16
  store i32 1, ptr %31, align 8, !tbaa !20
  br label %32

32:                                               ; preds = %29, %23, %20
  ret void
}

; Function Attrs: mustprogress uwtable
define internal void @_ZL12_UTF16LEOpenP10UConverterP18UConverterLoadArgsP10UErrorCode(ptr noundef %0, ptr noundef %1, ptr noundef %2) #0 {
  %4 = alloca ptr, align 8
  %5 = alloca ptr, align 8
  %6 = alloca ptr, align 8
  store ptr %0, ptr %4, align 8, !tbaa !3
  store ptr %1, ptr %5, align 8, !tbaa !8
  store ptr %2, ptr %6, align 8, !tbaa !8
  %7 = load ptr, ptr %4, align 8, !tbaa !3
  %8 = getelementptr inbounds nuw %struct.UConverter, ptr %7, i32 0, i32 7
  %9 = load i32, ptr %8, align 8, !tbaa !9
  %10 = and i32 %9, 15
  %11 = icmp ule i32 %10, 1
  br i1 %11, label %12, label %14

12:                                               ; preds = %3
  %13 = load ptr, ptr %4, align 8, !tbaa !3
  call void @_ZL13_UTF16LEResetP10UConverter21UConverterResetChoice(ptr noundef %13, i32 noundef 0)
  br label %16

14:                                               ; preds = %3
  %15 = load ptr, ptr %6, align 8, !tbaa !8
  store i32 1, ptr %15, align 4, !tbaa !15
  br label %16

16:                                               ; preds = %14, %12
  ret void
}