; Function Attrs: mustprogress nofree norecurse nosync nounwind willreturn memory(argmem: readwrite) uwtable
define internal void @_ZL12_UTF16LEOpenP10UConverterP18UConverterLoadArgsP10UErrorCode(ptr noundef captures(none) %0, ptr readnone captures(none) %1, ptr noundef writeonly captures(none) %2) #0 {
  %4 = getelementptr inbounds nuw i8, ptr %0, i64 56
  %5 = load i32, ptr %4, align 8, !tbaa !3
  %6 = and i32 %5, 14
  %7 = icmp eq i32 %6, 0
  br i1 %7, label %8, label %14

8:                                                ; preds = %3
  %9 = and i32 %5, 1
  %10 = shl nuw nsw i32 %9, 3
  %spec.select.i = xor i32 %10, 8
  %11 = getelementptr inbounds nuw i8, ptr %0, i64 76
  store i32 %spec.select.i, ptr %11, align 4, !tbaa !12
  %.not = icmp eq i32 %9, 0
  br i1 %.not, label %_ZL13_UTF16LEResetP10UConverter21UConverterResetChoice.exit, label %12

12:                                               ; preds = %8
  %13 = getelementptr inbounds nuw i8, ptr %0, i64 80
  store i32 1, ptr %13, align 8, !tbaa !13
  br label %_ZL13_UTF16LEResetP10UConverter21UConverterResetChoice.exit

14:                                               ; preds = %3
  store i32 1, ptr %2, align 4, !tbaa !14
  br label %_ZL13_UTF16LEResetP10UConverter21UConverterResetChoice.exit

_ZL13_UTF16LEResetP10UConverter21UConverterResetChoice.exit: ; preds = %12, %8, %14
  ret void
}